target datalayout = "e-m:e-p270:32:32-p271:32:32-p272:64:64-i64:64-i128:128-f80:128-n8:16:32:64-S128"
target triple = "x86_64-pc-linux-gnu"

%struct.GetBitContext = type { ptr, ptr, i32, i32, i32 }
%struct.AVCodecContext = type { ptr, i32, i32, ptr, i32, i32, ptr, ptr, ptr, i64, i32, i32, ptr, i32, %struct.AVRational, %struct.AVRational, %struct.AVRational, i32, i32, i32, i32, i32, %struct.AVRational, i32, i32, i32, i32, i32, i32, i32, i32, i32, i32, i32, ptr, ptr, i32, float, float, float, float, float, float, float, float, float, i32, i32, i32, i32, i32, i32, i32, i32, i32, i32, i32, i32, ptr, ptr, ptr, i32, i32, i32, i32, i32, i32, i32, i32, i32, i32, %struct.AVChannelLayout, i32, i32, i32, i32, i32, i32, i32, i32, ptr, i32, i32, i32, float, float, i32, i32, i32, i32, i32, ptr, i64, i64, float, float, i32, i32, ptr, ptr, i32, i32, i32, i32, i32, ptr, ptr, ptr, ptr, i32, i32, [8 x i64], i32, i32, i32, i32, i32, i32, i32, ptr, ptr, i32, i32, i32, i32, i32, i32, i32, i32, i32, i32, ptr, ptr, i32, i32, ptr, ptr, ptr, ptr, i32, i32, i64, i32, i32, i64, ptr, i64, ptr, i32, ptr, i32 }
%struct.AVRational = type { i32, i32 }
%struct.AVChannelLayout = type { i32, i32, %union.anon, ptr }
%union.anon = type { i64 }
%struct.AVCodecParserContext = type { ptr, ptr, i64, i64, i64, i32, i32, i64, i64, i64, i64, i32, i32, [4 x i64], [4 x i64], [4 x i64], i32, i64, [4 x i64], i32, i32, i32, i32, [4 x i64], i64, i64, i32, i32, i32, i32, i32, i32, i32, i32, i32 }

; Function Attrs: alwaysinline nounwind willreturn memory(none) uwtable
define internal i32 @av_bswap32(i32 noundef %0) #3 {
  %2 = alloca i32, align 4
  store i32 %0, ptr %2, align 4, !tbaa !18
  %3 = load i32, ptr %2, align 4, !tbaa !18
  %4 = shl i32 %3, 8
  %5 = and i32 %4, 65280
  %6 = load i32, ptr %2, align 4, !tbaa !18
  %7 = lshr i32 %6, 8
  %8 = and i32 %7, 255
  %9 = or i32 %5, %8
  %10 = shl i32 %9, 16
  %11 = load i32, ptr %2, align 4, !tbaa !18
  %12 = lshr i32 %11, 16
  %13 = shl i32 %12, 8
  %14 = and i32 %13, 65280
  %15 = load i32, ptr %2, align 4, !tbaa !18
  %16 = lshr i32 %15, 16
  %17 = lshr i32 %16, 8
  %18 = and i32 %17, 255
  %19 = or i32 %14, %18
  %20 = or i32 %10, %19
  ret i32 %20
}

; Function Attrs: inlinehint nounwind uwtable
define internal i32 @init_get_bits(ptr noundef %0, ptr noundef %1, i32 noundef %2) #2 {
  %4 = alloca ptr, align 8
  %5 = alloca ptr, align 8
  %6 = alloca i32, align 4
  %7 = alloca i32, align 4
  %8 = alloca i32, align 4
  store ptr %0, ptr %4, align 8, !tbaa !40
  store ptr %1, ptr %5, align 8, !tbaa !16
  store i32 %2, ptr %6, align 4, !tbaa !18
  call void @llvm.lifetime.start.p0(i64 4, ptr %7) #4
  call void @llvm.lifetime.start.p0(i64 4, ptr %8) #4
  store i32 0, ptr %8, align 4, !tbaa !18
  %9 = load i32, ptr %6, align 4, !tbaa !18
  %10 = icmp sge i32 %9, 2147483135
  br i1 %10, label %17, label %11

11:                                               ; preds = %3
  %12 = load i32, ptr %6, align 4, !tbaa !18
  %13 = icmp slt i32 %12, 0
  br i1 %13, label %17, label %14

14:                                               ; preds = %11
  %15 = load ptr, ptr %5, align 8, !tbaa !16
  %16 = icmp ne ptr %15, null
  br i1 %16, label %18, label %17

17:                                               ; preds = %14, %11, %3
  store i32 0, ptr %6, align 4, !tbaa !18
  store ptr null, ptr %5, align 8, !tbaa !16
  store i32 -1094995529, ptr %8, align 4, !tbaa !18
  br label %18

18:                                               ; preds = %17, %14
  %19 = load i32, ptr %6, align 4, !tbaa !18
  %20 = add nsw i32 %19, 7
  %21 = ashr i32 %20, 3
  store i32 %21, ptr %7, align 4, !tbaa !18
  %22 = load ptr, ptr %5, align 8, !tbaa !16
  %23 = load ptr, ptr %4, align 8, !tbaa !40
  %24 = getelementptr inbounds nuw %struct.GetBitContext, ptr %23, i32 0, i32 0
  store ptr %22, ptr %24, align 8, !tbaa !45
  %25 = load i32, ptr %6, align 4, !tbaa !18
  %26 = load ptr, ptr %4, align 8, !tbaa !40
  %27 = getelementptr inbounds nuw %struct.GetBitContext, ptr %26, i32 0, i32 3
  store i32 %25, ptr %27, align 4, !tbaa !47
  %28 = load i32, ptr %6, align 4, !tbaa !18
  %29 = add nsw i32 %28, 8
  %30 = load ptr, ptr %4, align 8, !tbaa !40
  %31 = getelementptr inbounds nuw %struct.GetBitContext, ptr %30, i32 0, i32 4
  store i32 %29, ptr %31, align 8, !tbaa !44
  %32 = load ptr, ptr %5, align 8, !tbaa !16
  %33 = load i32, ptr %7, align 4, !tbaa !18
  %34 = sext i32 %33 to i64
  %35 = getelementptr inbounds i8, ptr %32, i64 %34
  %36 = load ptr, ptr %4, align 8, !tbaa !40
  %37 = getelementptr inbounds nuw %struct.GetBitContext, ptr %36, i32 0, i32 1
  store ptr %35, ptr %37, align 8, !tbaa !48
  %38 = load ptr, ptr %4, align 8, !tbaa !40
  %39 = getelementptr inbounds nuw %struct.GetBitContext, ptr %38, i32 0, i32 2
  store i32 0, ptr %39, align 8, !tbaa !42
  %40 = load i32, ptr %8, align 4, !tbaa !18
  call void @llvm.lifetime.end.p0(i64 4, ptr %8) #4
  call void @llvm.lifetime.end.p0(i64 4, ptr %7) #4
  ret i32 %40
}

; Function Attrs: inlinehint nounwind uwtable
define internal i32 @get_bits1(ptr noundef %0) #2 {
  %2 = alloca ptr, align 8
  %3 = alloca i32, align 4
  %4 = alloca i8, align 1
  store ptr %0, ptr %2, align 8, !tbaa !40
  call void @llvm.lifetime.start.p0(i64 4, ptr %3) #4
  %5 = load ptr, ptr %2, align 8, !tbaa !40
  %6 = getelementptr inbounds nuw %struct.GetBitContext, ptr %5, i32 0, i32 2
  %7 = load i32, ptr %6, align 8, !tbaa !42
  store i32 %7, ptr %3, align 4, !tbaa !18
  call void @llvm.lifetime.start.p0(i64 1, ptr %4) #4
  %8 = load ptr, ptr %2, align 8, !tbaa !40
  %9 = getelementptr inbounds nuw %struct.GetBitContext, ptr %8, i32 0, i32 0
  %10 = load ptr, ptr %9, align 8, !tbaa !45
  %11 = load i32, ptr %3, align 4, !tbaa !18
  %12 = lshr i32 %11, 3
  %13 = zext i32 %12 to i64
  %14 = getelementptr inbounds nuw i8, ptr %10, i64 %13
  %15 = load i8, ptr %14, align 1, !tbaa !46
  store i8 %15, ptr %4, align 1, !tbaa !46
  %16 = load i32, ptr %3, align 4, !tbaa !18
  %17 = and i32 %16, 7
  %18 = load i8, ptr %4, align 1, !tbaa !46
  %19 = zext i8 %18 to i32
  %20 = shl i32 %19, %17
  %21 = trunc i32 %20 to i8
  store i8 %21, ptr %4, align 1, !tbaa !46
  %22 = load i8, ptr %4, align 1, !tbaa !46
  %23 = zext i8 %22 to i32
  %24 = ashr i32 %23, 7
  %25 = trunc i32 %24 to i8
  store i8 %25, ptr %4, align 1, !tbaa !46
  %26 = load ptr, ptr %2, align 8, !tbaa !40
  %27 = getelementptr inbounds nuw %struct.GetBitContext, ptr %26, i32 0, i32 2
  %28 = load i32, ptr %27, align 8, !tbaa !42
  %29 = load ptr, ptr %2, align 8, !tbaa !40
  %30 = getelementptr inbounds nuw %struct.GetBitContext, ptr %29, i32 0, i32 4
  %31 = load i32, ptr %30, align 8, !tbaa !44
  %32 = icmp slt i32 %28, %31
  br i1 %32, label %33, label %36

33:                                               ; preds = %1
  %34 = load i32, ptr %3, align 4, !tbaa !18
  %35 = add i32 %34, 1
  store i32 %35, ptr %3, align 4, !tbaa !18
  br label %36

36:                                               ; preds = %33, %1
  %37 = load i32, ptr %3, align 4, !tbaa !18
  %38 = load ptr, ptr %2, align 8, !tbaa !40
  %39 = getelementptr inbounds nuw %struct.GetBitContext, ptr %38, i32 0, i32 2
  store i32 %37, ptr %39, align 8, !tbaa !42
  %40 = load i8, ptr %4, align 1, !tbaa !46
  %41 = zext i8 %40 to i32
  call void @llvm.lifetime.end.p0(i64 1, ptr %4) #4
  call void @llvm.lifetime.end.p0(i64 4, ptr %3) #4
  ret i32 %41
}

; Function Attrs: inlinehint nounwind uwtable
define internal i32 @get_bits(ptr noundef %0, i32 noundef %1) #2 {
  %3 = alloca ptr, align 8
  %4 = alloca i32, align 4
  %5 = alloca i32, align 4
  %6 = alloca i32, align 4
  %7 = alloca i32, align 4
  %8 = alloca i32, align 4
  store ptr %0, ptr %3, align 8, !tbaa !40
  store i32 %1, ptr %4, align 4, !tbaa !18
  call void @llvm.lifetime.start.p0(i64 4, ptr %5) #4
  call void @llvm.lifetime.start.p0(i64 4, ptr %6) #4
  %9 = load ptr, ptr %3, align 8, !tbaa !40
  %10 = getelementptr inbounds nuw %struct.GetBitContext, ptr %9, i32 0, i32 2
  %11 = load i32, ptr %10, align 8, !tbaa !42
  store i32 %11, ptr %6, align 4, !tbaa !18
  call void @llvm.lifetime.start.p0(i64 4, ptr %7) #4
  call void @llvm.lifetime.start.p0(i64 4, ptr %8) #4
  %12 = load ptr, ptr %3, align 8, !tbaa !40
  %13 = getelementptr inbounds nuw %struct.GetBitContext, ptr %12, i32 0, i32 4
  %14 = load i32, ptr %13, align 8, !tbaa !44
  store i32 %14, ptr %8, align 4, !tbaa !18
  %15 = load ptr, ptr %3, align 8, !tbaa !40
  %16 = getelementptr inbounds nuw %struct.GetBitContext, ptr %15, i32 0, i32 0
  %17 = load ptr, ptr %16, align 8, !tbaa !45
  %18 = load i32, ptr %6, align 4, !tbaa !18
  %19 = lshr i32 %18, 3
  %20 = zext i32 %19 to i64
  %21 = getelementptr inbounds nuw i8, ptr %17, i64 %20
  %22 = load i32, ptr %21, align 1, !tbaa !46
  %23 = call i32 @av_bswap32(i32 noundef %22) #5
  %24 = load i32, ptr %6, align 4, !tbaa !18
  %25 = and i32 %24, 7
  %26 = shl i32 %23, %25
  %27 = lshr i32 %26, 0
  store i32 %27, ptr %7, align 4, !tbaa !18
  %28 = load i32, ptr %7, align 4, !tbaa !18
  %29 = load i32, ptr %4, align 4, !tbaa !18
  %30 = sub nsw i32 32, %29
  %31 = lshr i32 %28, %30
  store i32 %31, ptr %5, align 4, !tbaa !18
  %32 = load i32, ptr %8, align 4, !tbaa !18
  %33 = load i32, ptr %6, align 4, !tbaa !18
  %34 = load i32, ptr %4, align 4, !tbaa !18
  %35 = add i32 %33, %34
  %36 = icmp ugt i32 %32, %35
  br i1 %36, label %37, label %41

37:                                               ; preds = %2
  %38 = load i32, ptr %6, align 4, !tbaa !18
  %39 = load i32, ptr %4, align 4, !tbaa !18
  %40 = add i32 %38, %39
  br label %43

41:                                               ; preds = %2
  %42 = load i32, ptr %8, align 4, !tbaa !18
  br label %43

43:                                               ; preds = %41, %37
  %44 = phi i32 [ %40, %37 ], [ %42, %41 ]
  store i32 %44, ptr %6, align 4, !tbaa !18
  %45 = load i32, ptr %6, align 4, !tbaa !18
  %46 = load ptr, ptr %3, align 8, !tbaa !40
  %47 = getelementptr inbounds nuw %struct.GetBitContext, ptr %46, i32 0, i32 2
  store i32 %45, ptr %47, align 8, !tbaa !42
  %48 = load i32, ptr %5, align 4, !tbaa !18
  call void @llvm.lifetime.end.p0(i64 4, ptr %8) #4
  call void @llvm.lifetime.end.p0(i64 4, ptr %7) #4
  call void @llvm.lifetime.end.p0(i64 4, ptr %6) #4
  call void @llvm.lifetime.end.p0(i64 4, ptr %5) #4
  ret i32 %48
}

; Function Attrs: inlinehint nounwind uwtable
define internal i32 @init_get_bits8(ptr noundef %0, ptr noundef %1, i32 noundef %2) #2 {
  %4 = alloca ptr, align 8
  %5 = alloca ptr, align 8
  %6 = alloca i32, align 4
  store ptr %0, ptr %4, align 8, !tbaa !40
  store ptr %1, ptr %5, align 8, !tbaa !16
  store i32 %2, ptr %6, align 4, !tbaa !18
  %7 = load i32, ptr %6, align 4, !tbaa !18
  %8 = icmp sgt i32 %7, 268435455
  br i1 %8, label %12, label %9

9:                                                ; preds = %3
  %10 = load i32, ptr %6, align 4, !tbaa !18
  %11 = icmp slt i32 %10, 0
  br i1 %11, label %12, label %13

12:                                               ; preds = %9, %3
  store i32 -1, ptr %6, align 4, !tbaa !18
  br label %13

13:                                               ; preds = %12, %9
  %14 = load ptr, ptr %4, align 8, !tbaa !40
  %15 = load ptr, ptr %5, align 8, !tbaa !16
  %16 = load i32, ptr %6, align 4, !tbaa !18
  %17 = mul nsw i32 %16, 8
  %18 = call i32 @init_get_bits(ptr noundef %14, ptr noundef %15, i32 noundef %17)
  ret i32 %18
}

; Function Attrs: nounwind uwtable
define internal i32 @parse(ptr noundef %0, ptr noundef %1, ptr noundef %2, ptr noundef %3, ptr noundef %4, i32 noundef %5) #0 {
  %7 = alloca i32, align 4
  %8 = alloca ptr, align 8
  %9 = alloca ptr, align 8
  %10 = alloca ptr, align 8
  %11 = alloca ptr, align 8
  %12 = alloca ptr, align 8
  %13 = alloca i32, align 4
  %14 = alloca %struct.GetBitContext, align 8
  %15 = alloca i32, align 4
  %16 = alloca i32, align 4
  %17 = alloca i32, align 4
  %18 = alloca i32, align 4
  store ptr %0, ptr %8, align 8, !tbaa !4
  store ptr %1, ptr %9, align 8, !tbaa !9
  store ptr %2, ptr %10, align 8, !tbaa !11
  store ptr %3, ptr %11, align 8, !tbaa !14
  store ptr %4, ptr %12, align 8, !tbaa !16
  store i32 %5, ptr %13, align 4, !tbaa !18
  call void @llvm.lifetime.start.p0(i64 32, ptr %14) #4
  call void @llvm.lifetime.start.p0(i64 4, ptr %15) #4
  call void @llvm.lifetime.start.p0(i64 4, ptr %16) #4
  call void @llvm.lifetime.start.p0(i64 4, ptr %17) #4
  %19 = load ptr, ptr %12, align 8, !tbaa !16
  %20 = load ptr, ptr %10, align 8, !tbaa !11
  store ptr %19, ptr %20, align 8, !tbaa !16
  %21 = load i32, ptr %13, align 4, !tbaa !18
  %22 = load ptr, ptr %11, align 8, !tbaa !14
  store i32 %21, ptr %22, align 4, !tbaa !18
  %23 = load i32, ptr %13, align 4, !tbaa !18
  %24 = icmp ne i32 %23, 0
  br i1 %24, label %25, label %30

25:                                               ; preds = %6
  %26 = load ptr, ptr %12, align 8, !tbaa !16
  %27 = load i32, ptr %13, align 4, !tbaa !18
  %28 = call i32 @init_get_bits8(ptr noundef %14, ptr noundef %26, i32 noundef %27)
  store i32 %28, ptr %15, align 4, !tbaa !18
  %29 = icmp slt i32 %28, 0
  br i1 %29, label %30, label %32

30:                                               ; preds = %25, %6
  %31 = load i32, ptr %13, align 4, !tbaa !18
  store i32 %31, ptr %7, align 4
  store i32 1, ptr %18, align 4
  br label %77

32:                                               ; preds = %25
  %33 = call i32 @get_bits(ptr noundef %14, i32 noundef 2)
  %34 = call i32 @get_bits1(ptr noundef %14)
  store i32 %34, ptr %16, align 4, !tbaa !18
  %35 = call i32 @get_bits1(ptr noundef %14)
  %36 = shl i32 %35, 1
  %37 = load i32, ptr %16, align 4, !tbaa !18
  %38 = or i32 %37, %36
  store i32 %38, ptr %16, align 4, !tbaa !18
  %39 = load i32, ptr %16, align 4, !tbaa !18
  %40 = icmp eq i32 %39, 3
  br i1 %40, label %41, label %45

41:                                               ; preds = %32
  %42 = call i32 @get_bits1(ptr noundef %14)
  %43 = load i32, ptr %16, align 4, !tbaa !18
  %44 = add i32 %43, %42
  store i32 %44, ptr %16, align 4, !tbaa !18
  br label %45

45:                                               ; preds = %41, %32
  %46 = load i32, ptr %16, align 4, !tbaa !18
  %47 = icmp sgt i32 %46, 3
  br i1 %47, label %48, label %50

48:                                               ; preds = %45
  %49 = load i32, ptr %13, align 4, !tbaa !18
  store i32 %49, ptr %7, align 4
  store i32 1, ptr %18, align 4
  br label %77

50:                                               ; preds = %45
  %51 = load i32, ptr %16, align 4, !tbaa !18
  %52 = load ptr, ptr %9, align 8, !tbaa !9
  %53 = getelementptr inbounds nuw %struct.AVCodecContext, ptr %52, i32 0, i32 121
  store i32 %51, ptr %53, align 8, !tbaa !20
  %54 = call i32 @get_bits1(ptr noundef %14)
  %55 = icmp ne i32 %54, 0
  br i1 %55, label %56, label %57

56:                                               ; preds = %50
  store i32 0, ptr %17, align 4, !tbaa !18
  br label %62

57:                                               ; preds = %50
  %58 = call i32 @get_bits1(ptr noundef %14)
  %59 = icmp ne i32 %58, 0
  %60 = xor i1 %59, true
  %61 = zext i1 %60 to i32
  store i32 %61, ptr %17, align 4, !tbaa !18
  br label %62

62:                                               ; preds = %57, %56
  %63 = load i32, ptr %17, align 4, !tbaa !18
  %64 = icmp ne i32 %63, 0
  br i1 %64, label %70, label %65

65:                                               ; preds = %62
  %66 = load ptr, ptr %8, align 8, !tbaa !4
  %67 = getelementptr inbounds nuw %struct.AVCodecParserContext, ptr %66, i32 0, i32 5
  store i32 2, ptr %67, align 8, !tbaa !36
  %68 = load ptr, ptr %8, align 8, !tbaa !4
  %69 = getelementptr inbounds nuw %struct.AVCodecParserContext, ptr %68, i32 0, i32 19
  store i32 0, ptr %69, align 8, !tbaa !39
  br label %75

70:                                               ; preds = %62
  %71 = load ptr, ptr %8, align 8, !tbaa !4
  %72 = getelementptr inbounds nuw %struct.AVCodecParserContext, ptr %71, i32 0, i32 5
  store i32 1, ptr %72, align 8, !tbaa !36
  %73 = load ptr, ptr %8, align 8, !tbaa !4
  %74 = getelementptr inbounds nuw %struct.AVCodecParserContext, ptr %73, i32 0, i32 19
  store i32 1, ptr %74, align 8, !tbaa !39
  br label %75

75:                                               ; preds = %70, %65
  %76 = load i32, ptr %13, align 4, !tbaa !18
  store i32 %76, ptr %7, align 4
  store i32 1, ptr %18, align 4
  br label %77

77:                                               ; preds = %75, %48, %30
  call void @llvm.lifetime.end.p0(i64 4, ptr %17) #4
  call void @llvm.lifetime.end.p0(i64 4, ptr %16) #4
  call void @llvm.lifetime.end.p0(i64 4, ptr %15) #4
  call void @llvm.lifetime.end.p0(i64 32, ptr %14) #4
  %78 = load i32, ptr %7, align 4
  ret i32 %78
}