; Function Attrs: mustprogress nofree norecurse nosync nounwind willreturn memory(argmem: readwrite) uwtable
define internal noundef i32 @parse(ptr noundef writeonly captures(none) %0, ptr noundef writeonly captures(none) %1, ptr noundef writeonly captures(none) initializes((0, 8)) %2, ptr noundef writeonly captures(none) initializes((0, 4)) %3, ptr noundef %4, i32 noundef returned %5) #0 {
  store ptr %4, ptr %2, align 8, !tbaa !4
  store i32 %5, ptr %3, align 4, !tbaa !9
  %.not = icmp eq i32 %5, 0
  br i1 %.not, label %30, label %7

7:                                                ; preds = %6
  %or.cond.i.i51 = icmp ult i32 %5, 268435392
  %8 = icmp ne ptr %4, null
  %or.cond3.i.i = and i1 %8, %or.cond.i.i51
  br i1 %or.cond3.i.i, label %9, label %30

9:                                                ; preds = %7
  %10 = load i8, ptr %4, align 1, !tbaa !11
  %11 = lshr i8 %10, 5
  %12 = and i8 %11, 1
  %13 = lshr i8 %10, 3
  %14 = and i8 %13, 2
  %15 = or disjoint i8 %12, %14
  %16 = zext nneg i8 %15 to i32
  %17 = icmp eq i8 %15, 3
  br i1 %17, label %18, label %.thread

18:                                               ; preds = %9
  %19 = and i8 %10, 8
  %.not53 = icmp eq i8 %19, 0
  br i1 %.not53, label %.thread, label %30

.thread:                                          ; preds = %9, %18
  %.02150 = phi i32 [ 3, %18 ], [ %16, %9 ]
  %.sroa.10.049 = phi i32 [ 5, %18 ], [ 4, %9 ]
  %20 = getelementptr inbounds nuw i8, ptr %1, i64 688
  store i32 %.02150, ptr %20, align 8, !tbaa !12
  %21 = load i8, ptr %4, align 1, !tbaa !11
  %22 = zext i8 %21 to i32
  %23 = lshr exact i32 128, %.sroa.10.049
  %24 = and i32 %23, %22
  %.not25 = icmp eq i32 %24, 0
  br i1 %.not25, label %25, label %.sink.split

25:                                               ; preds = %.thread
  %26 = lshr exact i32 64, %.sroa.10.049
  %27 = and i32 %26, %22
  %.not54 = icmp eq i32 %27, 0
  %spec.select = select i1 %.not54, i32 1, i32 2
  %spec.select58 = zext i1 %.not54 to i32
  br label %.sink.split

.sink.split:                                      ; preds = %25, %.thread
  %.sink56 = phi i32 [ 2, %.thread ], [ %spec.select, %25 ]
  %.sink = phi i32 [ 0, %.thread ], [ %spec.select58, %25 ]
  %28 = getelementptr inbounds nuw i8, ptr %0, i64 40
  store i32 %.sink56, ptr %28, align 8, !tbaa !30
  %29 = getelementptr inbounds nuw i8, ptr %0, i64 232
  store i32 %.sink, ptr %29, align 8, !tbaa !33
  br label %30

30:                                               ; preds = %.sink.split, %18, %6, %7
  ret i32 %5
}